; Function Attrs: nounwind uwtable
define dso_local void @pa_set_fileset_state(ptr noundef %0, i32 noundef %1) local_unnamed_addr #0 {
  %3 = tail call i8 asm sideeffect "\09lock\09\09\09\0A\09xchgb\09$0,$1\09\0A", "=q,=*m,0,*m,~{memory},~{cc},~{dirflag},~{fpsr},~{flags}"(ptr elementtype(i8) %0, i8 1, ptr elementtype(i8) %0) #10, !srcloc !7
  %.not = icmp eq i8 %3, 0
  br i1 %.not, label %6, label %4

4:                                                ; preds = %2
  %5 = tail call i32 @s_lock(ptr noundef %0, ptr noundef nonnull @.str.2, i32 noundef 1501, ptr noundef nonnull @__func__.pa_set_fileset_state) #10
  br label %6

6:                                                ; preds = %2, %4
  %7 = getelementptr inbounds nuw i8, ptr %0, i64 32
  store i32 %1, ptr %7, align 8
  %8 = icmp eq i32 %1, 2
  br i1 %8, label %9, label %14

9:                                                ; preds = %6
  %10 = getelementptr inbounds nuw i8, ptr %0, i64 36
  %11 = load ptr, ptr @MyLogicalRepWorker, align 8
  %12 = getelementptr inbounds nuw i8, ptr %11, i64 72
  %13 = load ptr, ptr %12, align 8
  tail call void @llvm.memcpy.p0.p0.i64(ptr noundef nonnull align 4 dereferenceable(44) %10, ptr noundef nonnull align 4 dereferenceable(44) %13, i64 44, i1 false)
  br label %14

14:                                               ; preds = %6, %9
  tail call void asm sideeffect "", "~{memory},~{dirflag},~{fpsr},~{flags}"() #10, !srcloc !12
  store i8 0, ptr %0, align 8
  ret void
}